target datalayout = "e-m:e-p270:32:32-p271:32:32-p272:64:64-i64:64-i128:128-f80:128-n8:16:32:64-S128"
target triple = "x86_64-unknown-linux-gnu"

%"class.icu_75::UnicodeString" = type { %"class.icu_75::Replaceable", %"union.icu_75::UnicodeString::StackBufferOrFields" }
%"class.icu_75::Replaceable" = type { %"class.icu_75::UObject" }
%"class.icu_75::UObject" = type { ptr }
%"union.icu_75::UnicodeString::StackBufferOrFields" = type { %struct.anon.0, [32 x i8] }
%struct.anon.0 = type { i16, i32, i32, ptr }
%"class.icu_75::UXMLParser" = type { %"class.icu_75::UObject", %"class.icu_75::RegexMatcher", %"class.icu_75::RegexMatcher", %"class.icu_75::RegexMatcher", %"class.icu_75::RegexMatcher", %"class.icu_75::RegexMatcher", %"class.icu_75::RegexMatcher", %"class.icu_75::RegexMatcher", %"class.icu_75::RegexMatcher", %"class.icu_75::RegexMatcher", %"class.icu_75::RegexMatcher", %"class.icu_75::RegexMatcher", %"class.icu_75::RegexMatcher", %"class.icu_75::RegexMatcher", %"class.icu_75::Hashtable", %"class.icu_75::UStack", i32, %"class.icu_75::UnicodeString" }
%"class.icu_75::RegexMatcher" = type { %"class.icu_75::UObject", ptr, ptr, ptr, ptr, ptr, i64, i32, i64, i64, i64, i64, i64, i64, i64, i64, i8, i8, i8, i64, i64, i64, i64, i8, i8, ptr, ptr, ptr, [8 x i64], i32, i32, i32, i32, ptr, ptr, ptr, ptr, i8, i8, i32, ptr, ptr }
%"class.icu_75::Hashtable" = type { ptr, %struct.UHashtable }
%struct.UHashtable = type { ptr, ptr, ptr, ptr, ptr, ptr, i32, i32, i32, i32, float, float, i8, i8 }
%"class.icu_75::UStack" = type { %"class.icu_75::UVector" }
%"class.icu_75::UVector" = type { %"class.icu_75::UObject", i32, i32, ptr, ptr, ptr }
%"class.icu_75::UXMLElement" = type { %"class.icu_75::UObject", ptr, ptr, %"class.icu_75::UnicodeString", %"class.icu_75::UVector", %"class.icu_75::UVector", %"class.icu_75::UVector", ptr }
%struct.UHashElement = type { i32, %union.UElement, %union.UElement }
%union.UElement = type { ptr }

@_ZTIN6icu_757UObjectE = external constant ptr
@_ZTIN6icu_7511UXMLElementE = constant { ptr, ptr, ptr } { ptr getelementptr inbounds (ptr, ptr @_ZTVN10__cxxabiv120__si_class_type_infoE, i64 2), ptr @_ZTSN6icu_7511UXMLElementE, ptr @_ZTIN6icu_757UObjectE }, align 8

; Function Attrs: mustprogress uwtable
define linkonce_odr noundef ptr @_ZNK6icu_759Hashtable4findERKNS_13UnicodeStringE(ptr noundef nonnull align 8 dereferenceable(88) %this, ptr noundef nonnull align 8 dereferenceable(64) %key) #1 comdat align 2 {
entry:
  %this.addr = alloca ptr, align 8
  %key.addr = alloca ptr, align 8
  store ptr %this, ptr %this.addr, align 8
  store ptr %key, ptr %key.addr, align 8
  %this1 = load ptr, ptr %this.addr, align 8
  %hash = getelementptr inbounds %"class.icu_75::Hashtable", ptr %this1, i32 0, i32 0
  %0 = load ptr, ptr %hash, align 8
  %1 = load ptr, ptr %key.addr, align 8
  %call = call ptr @uhash_find_75(ptr noundef %0, ptr noundef %1)
  ret ptr %call
}

; Function Attrs: mustprogress nounwind uwtable
define linkonce_odr noundef i32 @_ZNK6icu_757UVector4sizeEv(ptr noundef nonnull align 8 dereferenceable(40) %this) #0 comdat align 2 {
entry:
  %this.addr = alloca ptr, align 8
  store ptr %this, ptr %this.addr, align 8
  %this1 = load ptr, ptr %this.addr, align 8
  %count = getelementptr inbounds %"class.icu_75::UVector", ptr %this1, i32 0, i32 1
  %0 = load i32, ptr %count, align 8
  ret i32 %0
}

; Function Attrs: mustprogress uwtable
define noundef ptr @_ZNK6icu_7510UXMLParser8findNameERKNS_13UnicodeStringE(ptr noundef nonnull align 8 dereferenceable(4576) %this, ptr noundef nonnull align 8 dereferenceable(64) %s) #1 align 2 {
entry:
  %retval = alloca ptr, align 8
  %this.addr = alloca ptr, align 8
  %s.addr = alloca ptr, align 8
  %he = alloca ptr, align 8
  store ptr %this, ptr %this.addr, align 8
  store ptr %s, ptr %s.addr, align 8
  %this1 = load ptr, ptr %this.addr, align 8
  %fNames = getelementptr inbounds %"class.icu_75::UXMLParser", ptr %this1, i32 0, i32 14
  %0 = load ptr, ptr %s.addr, align 8
  %call = call noundef ptr @_ZNK6icu_759Hashtable4findERKNS_13UnicodeStringE(ptr noundef nonnull align 8 dereferenceable(88) %fNames, ptr noundef nonnull align 8 dereferenceable(64) %0)
  store ptr %call, ptr %he, align 8
  %1 = load ptr, ptr %he, align 8
  %cmp = icmp ne ptr %1, null
  br i1 %cmp, label %if.then, label %if.else

if.then:                                          ; preds = %entry
  %2 = load ptr, ptr %he, align 8
  %key = getelementptr inbounds %struct.UHashElement, ptr %2, i32 0, i32 2
  %3 = load ptr, ptr %key, align 8
  store ptr %3, ptr %retval, align 8
  br label %return

if.else:                                          ; preds = %entry
  store ptr null, ptr %retval, align 8
  br label %return

return:                                           ; preds = %if.else, %if.then
  %4 = load ptr, ptr %retval, align 8
  ret ptr %4
}

; Function Attrs: mustprogress uwtable
define noundef ptr @_ZNK6icu_7511UXMLElement15getChildElementERKNS_13UnicodeStringE(ptr noundef nonnull align 8 dereferenceable(216) %this, ptr noundef nonnull align 8 dereferenceable(64) %name) #1 align 2 {
entry:
  %retval = alloca ptr, align 8
  %this.addr = alloca ptr, align 8
  %name.addr = alloca ptr, align 8
  %p = alloca ptr, align 8
  %node = alloca ptr, align 8
  %i = alloca i32, align 4
  %count = alloca i32, align 4
  %elem = alloca ptr, align 8
  store ptr %this, ptr %this.addr, align 8
  store ptr %name, ptr %name.addr, align 8
  %this1 = load ptr, ptr %this.addr, align 8
  %fParser = getelementptr inbounds %"class.icu_75::UXMLElement", ptr %this1, i32 0, i32 1
  %0 = load ptr, ptr %fParser, align 8
  %1 = load ptr, ptr %name.addr, align 8
  %call = call noundef ptr @_ZNK6icu_7510UXMLParser8findNameERKNS_13UnicodeStringE(ptr noundef nonnull align 8 dereferenceable(4576) %0, ptr noundef nonnull align 8 dereferenceable(64) %1)
  store ptr %call, ptr %p, align 8
  %2 = load ptr, ptr %p, align 8
  %cmp = icmp eq ptr %2, null
  br i1 %cmp, label %if.then, label %if.end

if.then:                                          ; preds = %entry
  store ptr null, ptr %retval, align 8
  br label %return

if.end:                                           ; preds = %entry
  %fChildren = getelementptr inbounds %"class.icu_75::UXMLElement", ptr %this1, i32 0, i32 6
  %call2 = call noundef i32 @_ZNK6icu_757UVector4sizeEv(ptr noundef nonnull align 8 dereferenceable(40) %fChildren)
  store i32 %call2, ptr %count, align 4
  store i32 0, ptr %i, align 4
  br label %for.cond

for.cond:                                         ; preds = %for.inc, %if.end
  %3 = load i32, ptr %i, align 4
  %4 = load i32, ptr %count, align 4
  %cmp3 = icmp slt i32 %3, %4
  br i1 %cmp3, label %for.body, label %for.end

for.body:                                         ; preds = %for.cond
  %fChildren4 = getelementptr inbounds %"class.icu_75::UXMLElement", ptr %this1, i32 0, i32 6
  %5 = load i32, ptr %i, align 4
  %call5 = call noundef ptr @_ZNK6icu_757UVector9elementAtEi(ptr noundef nonnull align 8 dereferenceable(40) %fChildren4, i32 noundef %5)
  store ptr %call5, ptr %node, align 8
  %6 = load ptr, ptr %node, align 8
  %7 = icmp eq ptr %6, null
  br i1 %7, label %dynamic_cast.null, label %dynamic_cast.notnull

dynamic_cast.notnull:                             ; preds = %for.body
  %8 = call ptr @__dynamic_cast(ptr %6, ptr @_ZTIN6icu_757UObjectE, ptr @_ZTIN6icu_7511UXMLElementE, i64 0) #6
  br label %dynamic_cast.end

dynamic_cast.null:                                ; preds = %for.body
  br label %dynamic_cast.end

dynamic_cast.end:                                 ; preds = %dynamic_cast.null, %dynamic_cast.notnull
  %9 = phi ptr [ %8, %dynamic_cast.notnull ], [ null, %dynamic_cast.null ]
  store ptr %9, ptr %elem, align 8
  %10 = load ptr, ptr %elem, align 8
  %cmp6 = icmp ne ptr %10, null
  br i1 %cmp6, label %if.then7, label %if.end11

if.then7:                                         ; preds = %dynamic_cast.end
  %11 = load ptr, ptr %p, align 8
  %12 = load ptr, ptr %elem, align 8
  %fName = getelementptr inbounds %"class.icu_75::UXMLElement", ptr %12, i32 0, i32 2
  %13 = load ptr, ptr %fName, align 8
  %cmp8 = icmp eq ptr %11, %13
  br i1 %cmp8, label %if.then9, label %if.end10

if.then9:                                         ; preds = %if.then7
  %14 = load ptr, ptr %elem, align 8
  store ptr %14, ptr %retval, align 8
  br label %return

if.end10:                                         ; preds = %if.then7
  br label %if.end11

if.end11:                                         ; preds = %if.end10, %dynamic_cast.end
  br label %for.inc

for.inc:                                          ; preds = %if.end11
  %15 = load i32, ptr %i, align 4
  %inc = add nsw i32 %15, 1
  store i32 %inc, ptr %i, align 4
  br label %for.cond, !llvm.loop !22

for.end:                                          ; preds = %for.cond
  store ptr null, ptr %retval, align 8
  br label %return

return:                                           ; preds = %for.end, %if.then9, %if.then
  %16 = load ptr, ptr %retval, align 8
  ret ptr %16
}