; Function Attrs: mustprogress uwtable
define noundef ptr @_ZNK6icu_7511UXMLElement15getChildElementERKNS_13UnicodeStringE(ptr noundef nonnull align 8 dereferenceable(216) %this, ptr noundef nonnull align 8 dereferenceable(64) %name) local_unnamed_addr #1 align 2 {
entry:
  %fParser = getelementptr inbounds i8, ptr %this, i64 8
  %0 = load ptr, ptr %fParser, align 8
  %fNames.i = getelementptr inbounds i8, ptr %0, i64 4376
  %1 = load ptr, ptr %fNames.i, align 8
  %call.i.i = tail call noundef ptr @uhash_find_75(ptr noundef %1, ptr noundef nonnull %name)
  %cmp.not.i = icmp eq ptr %call.i.i, null
  br i1 %cmp.not.i, label %return, label %_ZNK6icu_7510UXMLParser8findNameERKNS_13UnicodeStringE.exit

_ZNK6icu_7510UXMLParser8findNameERKNS_13UnicodeStringE.exit: ; preds = %entry
  %key.i = getelementptr inbounds i8, ptr %call.i.i, i64 16
  %2 = load ptr, ptr %key.i, align 8
  %cmp = icmp eq ptr %2, null
  br i1 %cmp, label %return, label %if.end

if.end:                                           ; preds = %_ZNK6icu_7510UXMLParser8findNameERKNS_13UnicodeStringE.exit
  %fChildren = getelementptr inbounds i8, ptr %this, i64 168
  %count.i = getelementptr inbounds i8, ptr %this, i64 176
  %3 = load i32, ptr %count.i, align 8
  %cmp39 = icmp sgt i32 %3, 0
  br i1 %cmp39, label %for.body, label %return

for.body:                                         ; preds = %if.end, %for.inc
  %i.010 = phi i32 [ %inc, %for.inc ], [ 0, %if.end ]
  %call5 = tail call noundef ptr @_ZNK6icu_757UVector9elementAtEi(ptr noundef nonnull align 8 dereferenceable(40) %fChildren, i32 noundef %i.010)
  %4 = icmp eq ptr %call5, null
  br i1 %4, label %for.inc, label %dynamic_cast.end

dynamic_cast.end:                                 ; preds = %for.body
  %5 = tail call ptr @__dynamic_cast(ptr nonnull %call5, ptr nonnull @_ZTIN6icu_757UObjectE, ptr nonnull @_ZTIN6icu_7511UXMLElementE, i64 0) #11
  %cmp6.not = icmp eq ptr %5, null
  br i1 %cmp6.not, label %for.inc, label %if.then7

if.then7:                                         ; preds = %dynamic_cast.end
  %fName = getelementptr inbounds i8, ptr %5, i64 16
  %6 = load ptr, ptr %fName, align 8
  %cmp8 = icmp eq ptr %2, %6
  br i1 %cmp8, label %return, label %for.inc

for.inc:                                          ; preds = %for.body, %dynamic_cast.end, %if.then7
  %inc = add nuw nsw i32 %i.010, 1
  %exitcond.not = icmp eq i32 %inc, %3
  br i1 %exitcond.not, label %return, label %for.body, !llvm.loop !21

return:                                           ; preds = %if.then7, %for.inc, %if.end, %entry, %_ZNK6icu_7510UXMLParser8findNameERKNS_13UnicodeStringE.exit
  %retval.0 = phi ptr [ null, %_ZNK6icu_7510UXMLParser8findNameERKNS_13UnicodeStringE.exit ], [ null, %entry ], [ null, %if.end ], [ %5, %if.then7 ], [ null, %for.inc ]
  ret ptr %retval.0
}